target datalayout = "e-m:e-p270:32:32-p271:32:32-p272:64:64-i64:64-i128:128-f80:128-n8:16:32:64-S128"
target triple = "x86_64-pc-linux-gnu"

%struct.reftable_write_options = type { i8, i32, i8, i16, i32, i32, i8, i8, i64, ptr, ptr, ptr }
%struct.fd_writer = type { ptr, i32 }

; Function Attrs: nounwind uwtable
define internal i32 @stack_fsync(ptr noundef %0, i32 noundef %1) #0 {
  %3 = alloca i32, align 4
  %4 = alloca ptr, align 8
  %5 = alloca i32, align 4
  store ptr %0, ptr %4, align 8, !tbaa !11
  store i32 %1, ptr %5, align 4, !tbaa !15
  %6 = load ptr, ptr %4, align 8, !tbaa !11
  %7 = getelementptr inbounds nuw %struct.reftable_write_options, ptr %6, i32 0, i32 9
  %8 = load ptr, ptr %7, align 8, !tbaa !83
  %9 = icmp ne ptr %8, null
  br i1 %9, label %10, label %16

10:                                               ; preds = %2
  %11 = load ptr, ptr %4, align 8, !tbaa !11
  %12 = getelementptr inbounds nuw %struct.reftable_write_options, ptr %11, i32 0, i32 9
  %13 = load ptr, ptr %12, align 8, !tbaa !83
  %14 = load i32, ptr %5, align 4, !tbaa !15
  %15 = call i32 %13(i32 noundef %14)
  store i32 %15, ptr %3, align 4
  br label %19

16:                                               ; preds = %2
  %17 = load i32, ptr %5, align 4, !tbaa !15
  %18 = call i32 @fsync(i32 noundef %17)
  store i32 %18, ptr %3, align 4
  br label %19

19:                                               ; preds = %16, %10
  %20 = load i32, ptr %3, align 4
  ret i32 %20
}

; Function Attrs: nounwind uwtable
define internal i32 @fd_writer_flush(ptr noundef %0) #0 {
  %2 = alloca ptr, align 8
  %3 = alloca ptr, align 8
  store ptr %0, ptr %2, align 8, !tbaa !23
  call void @llvm.lifetime.start.p0(i64 8, ptr %3) #10
  %4 = load ptr, ptr %2, align 8, !tbaa !23
  store ptr %4, ptr %3, align 8, !tbaa !117
  %5 = load ptr, ptr %3, align 8, !tbaa !117
  %6 = getelementptr inbounds nuw %struct.fd_writer, ptr %5, i32 0, i32 0
  %7 = load ptr, ptr %6, align 8, !tbaa !100
  %8 = load ptr, ptr %3, align 8, !tbaa !117
  %9 = getelementptr inbounds nuw %struct.fd_writer, ptr %8, i32 0, i32 1
  %10 = load i32, ptr %9, align 8, !tbaa !102
  %11 = call i32 @stack_fsync(ptr noundef %7, i32 noundef %10)
  call void @llvm.lifetime.end.p0(i64 8, ptr %3) #10
  ret i32 %11
}