; Function Attrs: nounwind uwtable
define internal i32 @fd_writer_flush(ptr noundef readonly captures(none) %0) #0 {
  %2 = load ptr, ptr %0, align 8, !tbaa !95
  %3 = getelementptr inbounds nuw i8, ptr %0, i64 8
  %4 = load i32, ptr %3, align 8, !tbaa !98
  %5 = getelementptr i8, ptr %2, i64 32
  %.val = load ptr, ptr %5, align 8, !tbaa !77
  %.not.i = icmp eq ptr %.val, null
  br i1 %.not.i, label %8, label %6

6:                                                ; preds = %1
  %7 = tail call i32 %.val(i32 noundef %4) #16
  br label %stack_fsync.exit

8:                                                ; preds = %1
  %9 = tail call i32 @fsync(i32 noundef %4) #16
  br label %stack_fsync.exit

stack_fsync.exit:                                 ; preds = %6, %8
  %.0.i = phi i32 [ %7, %6 ], [ %9, %8 ]
  ret i32 %.0.i
}